; Function Attrs: mustprogress uwtable
define dso_local void @_ZN18cmOrderDirectories26CollectOriginalDirectoriesEv(ptr noundef nonnull align 8 dereferenceable(1072) %0) local_unnamed_addr #3 align 2 {
  %2 = getelementptr inbounds i8, ptr %0, i64 120
  tail call void @_ZN18cmOrderDirectories22AddOriginalDirectoriesERKSt6vectorINSt7__cxx1112basic_stringIcSt11char_traitsIcESaIcEEESaIS6_EE(ptr noundef nonnull align 8 dereferenceable(1072) %0, ptr noundef nonnull align 8 dereferenceable(24) %2)
  %3 = getelementptr inbounds i8, ptr %0, i64 72
  %4 = load ptr, ptr %3, align 8
  %5 = getelementptr inbounds i8, ptr %0, i64 80
  %6 = load ptr, ptr %5, align 8
  %.not7 = icmp eq ptr %4, %6
  br i1 %.not7, label %._crit_edge, label %.lr.ph

.lr.ph:                                           ; preds = %1, %.lr.ph
  %.sroa.04.08 = phi ptr [ %13, %.lr.ph ], [ %4, %1 ]
  %7 = load ptr, ptr %.sroa.04.08, align 8
  %8 = getelementptr inbounds i8, ptr %7, i64 8
  %9 = load ptr, ptr %8, align 8
  %10 = getelementptr inbounds i8, ptr %7, i64 56
  %11 = tail call noundef i32 @_ZN18cmOrderDirectories20AddOriginalDirectoryERKNSt7__cxx1112basic_stringIcSt11char_traitsIcESaIcEEE(ptr noundef nonnull align 8 dereferenceable(1072) %9, ptr noundef nonnull align 8 dereferenceable(32) %10)
  %12 = getelementptr inbounds i8, ptr %7, i64 120
  store i32 %11, ptr %12, align 8
  %13 = getelementptr inbounds i8, ptr %.sroa.04.08, i64 8
  %.not = icmp eq ptr %13, %6
  br i1 %.not, label %._crit_edge, label %.lr.ph

._crit_edge:                                      ; preds = %.lr.ph, %1
  %14 = getelementptr inbounds i8, ptr %0, i64 144
  tail call void @_ZN18cmOrderDirectories22AddOriginalDirectoriesERKSt6vectorINSt7__cxx1112basic_stringIcSt11char_traitsIcESaIcEEESaIS6_EE(ptr noundef nonnull align 8 dereferenceable(1072) %0, ptr noundef nonnull align 8 dereferenceable(24) %14)
  ret void
}